target datalayout = "e-m:e-p270:32:32-p271:32:32-p272:64:64-i64:64-i128:128-f80:128-n8:16:32:64-S128"
target triple = "x86_64-pc-linux-gnu"

%union.pthread_mutex_t = type { %struct.__pthread_mutex_s }
%struct.__pthread_mutex_s = type { i32, i32, i32, i32, i32, i16, i16, %struct.__pthread_internal_list }
%struct.__pthread_internal_list = type { ptr, ptr }
%struct.pmix_tma = type { ptr, ptr, ptr, ptr, ptr, ptr, ptr, ptr }
%struct.event = type { %struct.event_callback, %union.anon.0, i32, ptr, %union.anon.2, i16, i16, %struct.timeval }
%struct.event_callback = type { %struct.anon, i16, i8, i8, %union.anon, ptr }
%struct.anon = type { ptr, ptr }
%union.anon = type { ptr }
%union.anon.0 = type { %struct.anon.1 }
%struct.anon.1 = type { ptr, ptr }
%union.anon.2 = type { %struct.anon.3 }
%struct.anon.3 = type { %struct.anon.4, %struct.timeval }
%struct.anon.4 = type { ptr, ptr }
%struct.timeval = type { i64, i64 }
%struct.pmix_object_t = type { %union.pthread_mutex_t, ptr, i32, %struct.pmix_tma }
%struct.pmix_proc = type { [256 x i8], i32 }
%struct.pmix_proc_type_t = type { i32, i8, i8, i8, i8 }
%struct.pmix_pending_connection_t = type { %struct.pmix_object_t, %struct.event, i16, i32, i8, i8, %struct.pmix_proc, ptr, i64, i32, %struct.sockaddr_storage, ptr, ptr, ptr, ptr, ptr, i8, ptr, i64, i32, i32, %struct.pmix_proc_type_t }
%struct.sockaddr_storage = type { i16, [118 x i8], i64 }

; Function Attrs: nounwind uwtable
define internal void @pcdes(ptr noundef %0) #0 {
  %2 = alloca ptr, align 8
  store ptr %0, ptr %2, align 8, !tbaa !107
  %3 = load ptr, ptr %2, align 8, !tbaa !107
  %4 = getelementptr inbounds nuw %struct.pmix_pending_connection_t, ptr %3, i32 0, i32 7
  %5 = load ptr, ptr %4, align 8, !tbaa !137
  %6 = icmp ne ptr null, %5
  br i1 %6, label %7, label %18

7:                                                ; preds = %1
  br label %8

8:                                                ; preds = %7
  %9 = load ptr, ptr %2, align 8, !tbaa !107
  %10 = getelementptr inbounds nuw %struct.pmix_pending_connection_t, ptr %9, i32 0, i32 7
  %11 = load ptr, ptr %10, align 8, !tbaa !137
  %12 = load ptr, ptr %2, align 8, !tbaa !107
  %13 = getelementptr inbounds nuw %struct.pmix_pending_connection_t, ptr %12, i32 0, i32 8
  %14 = load i64, ptr %13, align 8, !tbaa !138
  call void @PMIx_Info_free(ptr noundef %11, i64 noundef %14)
  %15 = load ptr, ptr %2, align 8, !tbaa !107
  %16 = getelementptr inbounds nuw %struct.pmix_pending_connection_t, ptr %15, i32 0, i32 7
  store ptr null, ptr %16, align 8, !tbaa !137
  br label %17

17:                                               ; preds = %8
  br label %18

18:                                               ; preds = %17, %1
  %19 = load ptr, ptr %2, align 8, !tbaa !107
  %20 = getelementptr inbounds nuw %struct.pmix_pending_connection_t, ptr %19, i32 0, i32 12
  %21 = load ptr, ptr %20, align 8, !tbaa !140
  %22 = icmp ne ptr null, %21
  br i1 %22, label %23, label %27

23:                                               ; preds = %18
  %24 = load ptr, ptr %2, align 8, !tbaa !107
  %25 = getelementptr inbounds nuw %struct.pmix_pending_connection_t, ptr %24, i32 0, i32 12
  %26 = load ptr, ptr %25, align 8, !tbaa !140
  call void @free(ptr noundef %26) #12
  br label %27

27:                                               ; preds = %23, %18
  %28 = load ptr, ptr %2, align 8, !tbaa !107
  %29 = getelementptr inbounds nuw %struct.pmix_pending_connection_t, ptr %28, i32 0, i32 13
  %30 = load ptr, ptr %29, align 8, !tbaa !141
  %31 = icmp ne ptr null, %30
  br i1 %31, label %32, label %36

32:                                               ; preds = %27
  %33 = load ptr, ptr %2, align 8, !tbaa !107
  %34 = getelementptr inbounds nuw %struct.pmix_pending_connection_t, ptr %33, i32 0, i32 13
  %35 = load ptr, ptr %34, align 8, !tbaa !141
  call void @free(ptr noundef %35) #12
  br label %36

36:                                               ; preds = %32, %27
  %37 = load ptr, ptr %2, align 8, !tbaa !107
  %38 = getelementptr inbounds nuw %struct.pmix_pending_connection_t, ptr %37, i32 0, i32 14
  %39 = load ptr, ptr %38, align 8, !tbaa !142
  %40 = icmp ne ptr null, %39
  br i1 %40, label %41, label %45

41:                                               ; preds = %36
  %42 = load ptr, ptr %2, align 8, !tbaa !107
  %43 = getelementptr inbounds nuw %struct.pmix_pending_connection_t, ptr %42, i32 0, i32 14
  %44 = load ptr, ptr %43, align 8, !tbaa !142
  call void @free(ptr noundef %44) #12
  br label %45

45:                                               ; preds = %41, %36
  %46 = load ptr, ptr %2, align 8, !tbaa !107
  %47 = getelementptr inbounds nuw %struct.pmix_pending_connection_t, ptr %46, i32 0, i32 15
  %48 = load ptr, ptr %47, align 8, !tbaa !143
  %49 = icmp ne ptr null, %48
  br i1 %49, label %50, label %54

50:                                               ; preds = %45
  %51 = load ptr, ptr %2, align 8, !tbaa !107
  %52 = getelementptr inbounds nuw %struct.pmix_pending_connection_t, ptr %51, i32 0, i32 15
  %53 = load ptr, ptr %52, align 8, !tbaa !143
  call void @free(ptr noundef %53) #12
  br label %54

54:                                               ; preds = %50, %45
  %55 = load ptr, ptr %2, align 8, !tbaa !107
  %56 = getelementptr inbounds nuw %struct.pmix_pending_connection_t, ptr %55, i32 0, i32 17
  %57 = load ptr, ptr %56, align 8, !tbaa !144
  %58 = icmp ne ptr null, %57
  br i1 %58, label %59, label %63

59:                                               ; preds = %54
  %60 = load ptr, ptr %2, align 8, !tbaa !107
  %61 = getelementptr inbounds nuw %struct.pmix_pending_connection_t, ptr %60, i32 0, i32 17
  %62 = load ptr, ptr %61, align 8, !tbaa !144
  call void @free(ptr noundef %62) #12
  br label %63

63:                                               ; preds = %59, %54
  ret void
}