; Function Attrs: nounwind uwtable
define internal void @pcdes(ptr noundef captures(none) %0) #0 {
  %2 = getelementptr inbounds nuw i8, ptr %0, i64 520
  %3 = load ptr, ptr %2, align 8, !tbaa !135
  %.not = icmp eq ptr %3, null
  br i1 %.not, label %7, label %4

4:                                                ; preds = %1
  %5 = getelementptr inbounds nuw i8, ptr %0, i64 528
  %6 = load i64, ptr %5, align 8, !tbaa !136
  tail call void @PMIx_Info_free(ptr noundef nonnull %3, i64 noundef %6) #16
  store ptr null, ptr %2, align 8, !tbaa !135
  br label %7

7:                                                ; preds = %4, %1
  %8 = getelementptr inbounds nuw i8, ptr %0, i64 680
  %9 = load ptr, ptr %8, align 8, !tbaa !137
  %.not19 = icmp eq ptr %9, null
  br i1 %.not19, label %11, label %10

10:                                               ; preds = %7
  tail call void @free(ptr noundef nonnull %9) #16
  br label %11

11:                                               ; preds = %10, %7
  %12 = getelementptr inbounds nuw i8, ptr %0, i64 688
  %13 = load ptr, ptr %12, align 8, !tbaa !138
  %.not20 = icmp eq ptr %13, null
  br i1 %.not20, label %15, label %14

14:                                               ; preds = %11
  tail call void @free(ptr noundef nonnull %13) #16
  br label %15

15:                                               ; preds = %14, %11
  %16 = getelementptr inbounds nuw i8, ptr %0, i64 696
  %17 = load ptr, ptr %16, align 8, !tbaa !139
  %.not21 = icmp eq ptr %17, null
  br i1 %.not21, label %19, label %18

18:                                               ; preds = %15
  tail call void @free(ptr noundef nonnull %17) #16
  br label %19

19:                                               ; preds = %18, %15
  %20 = getelementptr inbounds nuw i8, ptr %0, i64 704
  %21 = load ptr, ptr %20, align 8, !tbaa !140
  %.not22 = icmp eq ptr %21, null
  br i1 %.not22, label %23, label %22

22:                                               ; preds = %19
  tail call void @free(ptr noundef nonnull %21) #16
  br label %23

23:                                               ; preds = %22, %19
  %24 = getelementptr inbounds nuw i8, ptr %0, i64 720
  %25 = load ptr, ptr %24, align 8, !tbaa !129
  %.not23 = icmp eq ptr %25, null
  br i1 %.not23, label %27, label %26

26:                                               ; preds = %23
  tail call void @free(ptr noundef nonnull %25) #16
  br label %27

27:                                               ; preds = %26, %23
  ret void
}